target datalayout = "e-m:e-p270:32:32-p271:32:32-p272:64:64-i64:64-i128:128-f80:128-n8:16:32:64-S128"
target triple = "x86_64-pc-linux-gnu"

%"struct.faiss::IndexIVFAdditiveQuantizerFastScan" = type { %"struct.faiss::IndexIVFFastScan", ptr, i8, i32, i64 }
%"struct.faiss::IndexIVFFastScan" = type { %"struct.faiss::IndexIVF.base", i32, i64, i64, i64, i64, i32, i32, i32, i64, ptr, ptr }
%"struct.faiss::IndexIVF.base" = type <{ %"struct.faiss::Index.base", [4 x i8], %"struct.faiss::IndexIVFInterface", ptr, i8, [7 x i8], i64, i32, i32, %"struct.faiss::DirectMap", i8 }>
%"struct.faiss::Index.base" = type <{ ptr, i32, [4 x i8], i64, i8, i8, [2 x i8], i32, float }>
%"struct.faiss::IndexIVFInterface" = type { ptr, %"struct.faiss::Level1Quantizer", i64, i64 }
%"struct.faiss::Level1Quantizer" = type { ptr, i64, i8, i8, [6 x i8], %"struct.faiss::ClusteringParameters", ptr }
%"struct.faiss::ClusteringParameters" = type <{ i32, i32, i8, i8, i8, i8, i8, [3 x i8], i32, i32, i32, [4 x i8], i64, i8, i8, [6 x i8] }>
%"struct.faiss::DirectMap" = type { i32, %"class.std::vector", %"class.std::unordered_map" }
%"class.std::vector" = type { %"struct.std::_Vector_base" }
%"struct.std::_Vector_base" = type { %"struct.std::_Vector_base<long, std::allocator<long>>::_Vector_impl" }
%"struct.std::_Vector_base<long, std::allocator<long>>::_Vector_impl" = type { %"struct.std::_Vector_base<long, std::allocator<long>>::_Vector_impl_data" }
%"struct.std::_Vector_base<long, std::allocator<long>>::_Vector_impl_data" = type { ptr, ptr, ptr }
%"class.std::unordered_map" = type { %"class.std::_Hashtable" }
%"class.std::_Hashtable" = type { ptr, i64, %"struct.std::__detail::_Hash_node_base", i64, %"struct.std::__detail::_Prime_rehash_policy", ptr }
%"struct.std::__detail::_Hash_node_base" = type { ptr }
%"struct.std::__detail::_Prime_rehash_policy" = type { float, i64 }

; Function Attrs: mustprogress uwtable
define void @_ZN5faiss33IndexIVFAdditiveQuantizerFastScanC2EPNS_5IndexEPNS_17AdditiveQuantizerEmmNS_10MetricTypeEi(ptr noundef nonnull align 8 dereferenceable(368) %0, ptr noundef %1, ptr noundef %2, i64 noundef %3, i64 noundef %4, i32 noundef %5, i32 noundef %6) unnamed_addr #2 align 2 personality ptr @__gxx_personality_v0 {
  %8 = alloca ptr, align 8
  %9 = alloca ptr, align 8
  %10 = alloca ptr, align 8
  %11 = alloca i64, align 8
  %12 = alloca i64, align 8
  %13 = alloca i32, align 4
  %14 = alloca i32, align 4
  %15 = alloca ptr, align 8
  %16 = alloca i32, align 4
  store ptr %0, ptr %8, align 8, !tbaa !4
  store ptr %1, ptr %9, align 8, !tbaa !112
  store ptr %2, ptr %10, align 8, !tbaa !113
  store i64 %3, ptr %11, align 8, !tbaa !9
  store i64 %4, ptr %12, align 8, !tbaa !9
  store i32 %5, ptr %13, align 4, !tbaa !114
  store i32 %6, ptr %14, align 4, !tbaa !17
  %17 = load ptr, ptr %8, align 8
  %18 = load ptr, ptr %9, align 8, !tbaa !112
  %19 = load i64, ptr %11, align 8, !tbaa !9
  %20 = load i64, ptr %12, align 8, !tbaa !9
  %21 = load i32, ptr %13, align 4, !tbaa !114
  call void @_ZN5faiss16IndexIVFFastScanC2EPNS_5IndexEmmmNS_10MetricTypeE(ptr noundef nonnull align 8 dereferenceable(344) %17, ptr noundef %18, i64 noundef %19, i64 noundef %20, i64 noundef 0, i32 noundef %21)
  store ptr getelementptr inbounds inrange(-16, 288) ({ [38 x ptr], [6 x ptr] }, ptr @_ZTVN5faiss33IndexIVFAdditiveQuantizerFastScanE, i32 0, i32 0, i32 2), ptr %17, align 8, !tbaa !60
  %22 = getelementptr inbounds i8, ptr %17, i64 40
  store ptr getelementptr inbounds inrange(-16, 32) ({ [38 x ptr], [6 x ptr] }, ptr @_ZTVN5faiss33IndexIVFAdditiveQuantizerFastScanE, i32 0, i32 1, i32 2), ptr %22, align 8, !tbaa !60
  %23 = getelementptr inbounds nuw %"struct.faiss::IndexIVFAdditiveQuantizerFastScan", ptr %17, i32 0, i32 2
  store i8 0, ptr %23, align 8, !tbaa !19
  %24 = getelementptr inbounds nuw %"struct.faiss::IndexIVFAdditiveQuantizerFastScan", ptr %17, i32 0, i32 3
  store i32 1, ptr %24, align 4, !tbaa !48
  %25 = load ptr, ptr %10, align 8, !tbaa !113
  %26 = icmp ne ptr %25, null
  br i1 %26, label %27, label %37

27:                                               ; preds = %7
  %28 = load ptr, ptr %10, align 8, !tbaa !113
  %29 = load i64, ptr %12, align 8, !tbaa !9
  %30 = load i32, ptr %13, align 4, !tbaa !114
  %31 = load i32, ptr %14, align 4, !tbaa !17
  invoke void @_ZN5faiss33IndexIVFAdditiveQuantizerFastScan4initEPNS_17AdditiveQuantizerEmNS_10MetricTypeEi(ptr noundef nonnull align 8 dereferenceable(368) %17, ptr noundef %28, i64 noundef %29, i32 noundef %30, i32 noundef %31)
          to label %32 unwind label %33

32:                                               ; preds = %27
  br label %37

33:                                               ; preds = %27
  %34 = landingpad { ptr, i32 }
          cleanup
  %35 = extractvalue { ptr, i32 } %34, 0
  store ptr %35, ptr %15, align 8
  %36 = extractvalue { ptr, i32 } %34, 1
  store i32 %36, ptr %16, align 4
  call void @_ZN5faiss16IndexIVFFastScanD2Ev(ptr noundef nonnull align 8 dereferenceable(344) %17) #18
  br label %38

37:                                               ; preds = %32, %7
  ret void

38:                                               ; preds = %33
  %39 = load ptr, ptr %15, align 8
  %40 = load i32, ptr %16, align 4
  %41 = insertvalue { ptr, i32 } poison, ptr %39, 0
  %42 = insertvalue { ptr, i32 } %41, i32 %40, 1
  resume { ptr, i32 } %42
}