; Function Attrs: mustprogress uwtable
define void @_ZN5faiss33IndexIVFAdditiveQuantizerFastScanC2EPNS_5IndexEPNS_17AdditiveQuantizerEmmNS_10MetricTypeEi(ptr noundef nonnull align 8 dereferenceable(368) %0, ptr noundef %1, ptr noundef %2, i64 noundef %3, i64 noundef %4, i32 noundef %5, i32 noundef %6) unnamed_addr #2 align 2 personality ptr @__gxx_personality_v0 {
  tail call void @_ZN5faiss16IndexIVFFastScanC2EPNS_5IndexEmmmNS_10MetricTypeE(ptr noundef nonnull align 8 dereferenceable(344) %0, ptr noundef %1, i64 noundef %3, i64 noundef %4, i64 noundef 0, i32 noundef %5)
  store ptr getelementptr inbounds nuw inrange(-16, 288) (i8, ptr @_ZTVN5faiss33IndexIVFAdditiveQuantizerFastScanE, i64 16), ptr %0, align 8, !tbaa !61
  %8 = getelementptr inbounds nuw i8, ptr %0, i64 40
  store ptr getelementptr inbounds nuw inrange(-16, 32) (i8, ptr @_ZTVN5faiss33IndexIVFAdditiveQuantizerFastScanE, i64 320), ptr %8, align 8, !tbaa !61
  %9 = getelementptr inbounds nuw i8, ptr %0, i64 352
  store i8 0, ptr %9, align 8, !tbaa !15
  %10 = getelementptr inbounds nuw i8, ptr %0, i64 356
  store i32 1, ptr %10, align 4, !tbaa !105
  %.not = icmp eq ptr %2, null
  br i1 %.not, label %14, label %11

11:                                               ; preds = %7
  invoke void @_ZN5faiss33IndexIVFAdditiveQuantizerFastScan4initEPNS_17AdditiveQuantizerEmNS_10MetricTypeEi(ptr noundef nonnull align 8 dereferenceable(368) %0, ptr noundef nonnull %2, i64 noundef %4, i32 noundef %5, i32 noundef %6)
          to label %14 unwind label %12

12:                                               ; preds = %11
  %13 = landingpad { ptr, i32 }
          cleanup
  tail call void @_ZN5faiss16IndexIVFFastScanD2Ev(ptr noundef nonnull align 8 dereferenceable(344) %0) #21
  resume { ptr, i32 } %13

14:                                               ; preds = %11, %7
  ret void
}